target datalayout = "e-m:e-p270:32:32-p271:32:32-p272:64:64-i64:64-i128:128-f80:128-n8:16:32:64-S128"
target triple = "x86_64-pc-linux-gnu"

%struct.SDL_Gamepad = type { ptr, i32, ptr, i32, i32, ptr, i32, ptr, ptr, ptr, i64, ptr }
%struct.SDL_GamepadBinding = type { i32, %union.anon, i32, %union.anon.1 }
%union.anon = type { %struct.anon }
%struct.anon = type { i32, i32, i32 }
%union.anon.1 = type { %struct.anon.2 }
%struct.anon.2 = type { i32, i32, i32 }

@.str.4 = private unnamed_addr constant [26 x i8] c"Parameter '%s' is invalid\00", align 1
@.str.5 = private unnamed_addr constant [8 x i8] c"gamepad\00", align 1

; Function Attrs: nounwind uwtable
define hidden zeroext i1 @SDL_GamepadHasAxis_REAL(ptr noundef %0, i32 noundef %1) #0 {
  %3 = alloca i1, align 1
  %4 = alloca ptr, align 8
  %5 = alloca i32, align 4
  %6 = alloca i8, align 1
  %7 = alloca i32, align 4
  %8 = alloca i32, align 4
  %9 = alloca ptr, align 8
  store ptr %0, ptr %4, align 8
  store i32 %1, ptr %5, align 4
  call void @llvm.lifetime.start.p0(i64 1, ptr %6) #8
  store i8 0, ptr %6, align 1
  call void @SDL_LockJoysticks_REAL()
  call void @llvm.lifetime.start.p0(i64 4, ptr %7) #8
  %10 = load ptr, ptr %4, align 8
  %11 = call zeroext i1 @SDL_ObjectValid(ptr noundef %10, i32 noundef 5)
  br i1 %11, label %12, label %17

12:                                               ; preds = %2
  %13 = load ptr, ptr %4, align 8
  %14 = getelementptr inbounds nuw %struct.SDL_Gamepad, ptr %13, i32 0, i32 0
  %15 = load ptr, ptr %14, align 8
  %16 = call zeroext i1 @SDL_IsJoystickValid(ptr noundef %15)
  br i1 %16, label %19, label %17

17:                                               ; preds = %12, %2
  %18 = call zeroext i1 (ptr, ...) @SDL_SetError_REAL(ptr noundef @.str.4, ptr noundef @.str.5)
  call void @SDL_UnlockJoysticks_REAL()
  store i1 false, ptr %3, align 1
  store i32 1, ptr %8, align 4
  br label %53

19:                                               ; preds = %12
  store i32 0, ptr %7, align 4
  br label %20

20:                                               ; preds = %49, %19
  %21 = load i32, ptr %7, align 4
  %22 = load ptr, ptr %4, align 8
  %23 = getelementptr inbounds nuw %struct.SDL_Gamepad, ptr %22, i32 0, i32 6
  %24 = load i32, ptr %23, align 8
  %25 = icmp slt i32 %21, %24
  br i1 %25, label %26, label %52

26:                                               ; preds = %20
  call void @llvm.lifetime.start.p0(i64 8, ptr %9) #8
  %27 = load ptr, ptr %4, align 8
  %28 = getelementptr inbounds nuw %struct.SDL_Gamepad, ptr %27, i32 0, i32 7
  %29 = load ptr, ptr %28, align 8
  %30 = load i32, ptr %7, align 4
  %31 = sext i32 %30 to i64
  %32 = getelementptr inbounds %struct.SDL_GamepadBinding, ptr %29, i64 %31
  store ptr %32, ptr %9, align 8
  %33 = load ptr, ptr %9, align 8
  %34 = getelementptr inbounds nuw %struct.SDL_GamepadBinding, ptr %33, i32 0, i32 2
  %35 = load i32, ptr %34, align 4
  %36 = icmp eq i32 %35, 2
  br i1 %36, label %37, label %45

37:                                               ; preds = %26
  %38 = load ptr, ptr %9, align 8
  %39 = getelementptr inbounds nuw %struct.SDL_GamepadBinding, ptr %38, i32 0, i32 3
  %40 = getelementptr inbounds nuw %struct.anon.2, ptr %39, i32 0, i32 0
  %41 = load i32, ptr %40, align 4
  %42 = load i32, ptr %5, align 4
  %43 = icmp eq i32 %41, %42
  br i1 %43, label %44, label %45

44:                                               ; preds = %37
  store i8 1, ptr %6, align 1
  store i32 2, ptr %8, align 4
  br label %46

45:                                               ; preds = %37, %26
  store i32 0, ptr %8, align 4
  br label %46

46:                                               ; preds = %45, %44
  call void @llvm.lifetime.end.p0(i64 8, ptr %9) #8
  %47 = load i32, ptr %8, align 4
  switch i32 %47, label %60 [
    i32 0, label %48
    i32 2, label %52
  ]

48:                                               ; preds = %46
  br label %49

49:                                               ; preds = %48
  %50 = load i32, ptr %7, align 4
  %51 = add nsw i32 %50, 1
  store i32 %51, ptr %7, align 4
  br label %20, !llvm.loop !37

52:                                               ; preds = %46, %20
  store i32 0, ptr %8, align 4
  br label %53

53:                                               ; preds = %52, %17
  call void @llvm.lifetime.end.p0(i64 4, ptr %7) #8
  %54 = load i32, ptr %8, align 4
  switch i32 %54, label %58 [
    i32 0, label %55
  ]

55:                                               ; preds = %53
  call void @SDL_UnlockJoysticks_REAL()
  %56 = load i8, ptr %6, align 1, !range !3, !noundef !4
  %57 = trunc i8 %56 to i1
  store i1 %57, ptr %3, align 1
  store i32 1, ptr %8, align 4
  br label %58

58:                                               ; preds = %55, %53
  call void @llvm.lifetime.end.p0(i64 1, ptr %6) #8
  %59 = load i1, ptr %3, align 1
  ret i1 %59

60:                                               ; preds = %46
  unreachable
}