; Function Attrs: nounwind uwtable
define hidden noundef zeroext i1 @SDL_GamepadHasAxis_REAL(ptr noundef %0, i32 noundef %1) local_unnamed_addr #0 {
  tail call void @SDL_LockJoysticks_REAL() #10
  %3 = tail call zeroext i1 @SDL_ObjectValid(ptr noundef %0, i32 noundef 5) #10
  br i1 %3, label %4, label %22

4:                                                ; preds = %2
  %5 = load ptr, ptr %0, align 8
  %6 = tail call zeroext i1 @SDL_IsJoystickValid(ptr noundef %5) #10
  br i1 %6, label %.preheader, label %22

.preheader:                                       ; preds = %4
  %7 = getelementptr inbounds nuw i8, ptr %0, i64 40
  %8 = load i32, ptr %7, align 8
  %9 = icmp sgt i32 %8, 0
  br i1 %9, label %.lr.ph, label %._crit_edge

.lr.ph:                                           ; preds = %.preheader
  %10 = getelementptr inbounds nuw i8, ptr %0, i64 48
  %11 = load ptr, ptr %10, align 8
  %wide.trip.count = zext nneg i32 %8 to i64
  br label %12

12:                                               ; preds = %.lr.ph, %21
  %indvars.iv = phi i64 [ 0, %.lr.ph ], [ %indvars.iv.next, %21 ]
  %13 = getelementptr inbounds nuw %struct.SDL_GamepadBinding, ptr %11, i64 %indvars.iv
  %14 = getelementptr inbounds nuw i8, ptr %13, i64 16
  %15 = load i32, ptr %14, align 4
  %16 = icmp eq i32 %15, 2
  br i1 %16, label %17, label %21

17:                                               ; preds = %12
  %18 = getelementptr inbounds nuw i8, ptr %13, i64 20
  %19 = load i32, ptr %18, align 4
  %20 = icmp eq i32 %19, %1
  br i1 %20, label %._crit_edge, label %21

21:                                               ; preds = %12, %17
  %indvars.iv.next = add nuw nsw i64 %indvars.iv, 1
  %exitcond.not = icmp eq i64 %indvars.iv.next, %wide.trip.count
  br i1 %exitcond.not, label %._crit_edge, label %12, !llvm.loop !47

22:                                               ; preds = %2, %4
  %23 = tail call zeroext i1 (ptr, ...) @SDL_SetError_REAL(ptr noundef nonnull @.str.4, ptr noundef nonnull @.str.5) #10
  br label %._crit_edge

._crit_edge:                                      ; preds = %21, %17, %.preheader, %22
  %.1 = phi i1 [ false, %22 ], [ false, %.preheader ], [ false, %21 ], [ true, %17 ]
  tail call void @SDL_UnlockJoysticks_REAL() #10
  ret i1 %.1
}